target datalayout = "e-m:e-p270:32:32-p271:32:32-p272:64:64-i64:64-i128:128-f80:128-n8:16:32:64-S128"
target triple = "x86_64-unknown-linux-gnu"

%struct.ggml_tensor = type { i32, i32, ptr, [4 x i64], [4 x i64], i32, [16 x i32], i8, ptr, [10 x ptr], i32, i64, i64, ptr, i64, ptr, [64 x i8], ptr, [8 x i8] }

@stderr = external global ptr, align 8
@stdout = external global ptr, align 8
@.str.2 = private unnamed_addr constant [24 x i8] c"GGML_ASSERT: %s:%d: %s\0A\00", align 1
@.str.3 = private unnamed_addr constant [114 x i8] c"generated/home/dtcxzyw/WorkSpace/Projects/compilers/llvm-opt-benchmark/bench/llama.cpp/llama.cpp/common/train.cpp\00", align 1
@.str.4 = private unnamed_addr constant [21 x i8] c"tensor->ne[0] == ne0\00", align 1
@.str.8 = private unnamed_addr constant [21 x i8] c"tensor->ne[1] == ne1\00", align 1
@.str.9 = private unnamed_addr constant [21 x i8] c"tensor->ne[2] == ne2\00", align 1
@.str.10 = private unnamed_addr constant [21 x i8] c"tensor->ne[3] == ne3\00", align 1

; Function Attrs: mustprogress uwtable
define void @_Z15assert_shape_4dP11ggml_tensorllll(ptr noundef %tensor, i64 noundef %ne0, i64 noundef %ne1, i64 noundef %ne2, i64 noundef %ne3) #4 {
entry:
  %tensor.addr = alloca ptr, align 8
  %ne0.addr = alloca i64, align 8
  %ne1.addr = alloca i64, align 8
  %ne2.addr = alloca i64, align 8
  %ne3.addr = alloca i64, align 8
  store ptr %tensor, ptr %tensor.addr, align 8
  store i64 %ne0, ptr %ne0.addr, align 8
  store i64 %ne1, ptr %ne1.addr, align 8
  store i64 %ne2, ptr %ne2.addr, align 8
  store i64 %ne3, ptr %ne3.addr, align 8
  br label %do.body

do.body:                                          ; preds = %entry
  %0 = load ptr, ptr %tensor.addr, align 8
  %ne = getelementptr inbounds %struct.ggml_tensor, ptr %0, i32 0, i32 3
  %arrayidx = getelementptr inbounds [4 x i64], ptr %ne, i64 0, i64 0
  %1 = load i64, ptr %arrayidx, align 8
  %2 = load i64, ptr %ne0.addr, align 8
  %cmp = icmp eq i64 %1, %2
  br i1 %cmp, label %if.end, label %if.then

if.then:                                          ; preds = %do.body
  %3 = load ptr, ptr @stdout, align 8
  %call = call i32 @fflush(ptr noundef %3)
  %4 = load ptr, ptr @stderr, align 8
  %call1 = call i32 (ptr, ptr, ...) @fprintf(ptr noundef %4, ptr noundef @.str.2, ptr noundef @.str.3, i32 noundef 207, ptr noundef @.str.4)
  call void @ggml_print_backtrace()
  call void @abort() #21
  unreachable

if.end:                                           ; preds = %do.body
  br label %do.end

do.end:                                           ; preds = %if.end
  br label %do.body2

do.body2:                                         ; preds = %do.end
  %5 = load ptr, ptr %tensor.addr, align 8
  %ne4 = getelementptr inbounds %struct.ggml_tensor, ptr %5, i32 0, i32 3
  %arrayidx5 = getelementptr inbounds [4 x i64], ptr %ne4, i64 0, i64 1
  %6 = load i64, ptr %arrayidx5, align 8
  %7 = load i64, ptr %ne1.addr, align 8
  %cmp6 = icmp eq i64 %6, %7
  br i1 %cmp6, label %if.end10, label %if.then7

if.then7:                                         ; preds = %do.body2
  %8 = load ptr, ptr @stdout, align 8
  %call8 = call i32 @fflush(ptr noundef %8)
  %9 = load ptr, ptr @stderr, align 8
  %call9 = call i32 (ptr, ptr, ...) @fprintf(ptr noundef %9, ptr noundef @.str.2, ptr noundef @.str.3, i32 noundef 208, ptr noundef @.str.8)
  call void @ggml_print_backtrace()
  call void @abort() #21
  unreachable

if.end10:                                         ; preds = %do.body2
  br label %do.end11

do.end11:                                         ; preds = %if.end10
  br label %do.body12

do.body12:                                        ; preds = %do.end11
  %10 = load ptr, ptr %tensor.addr, align 8
  %ne13 = getelementptr inbounds %struct.ggml_tensor, ptr %10, i32 0, i32 3
  %arrayidx14 = getelementptr inbounds [4 x i64], ptr %ne13, i64 0, i64 2
  %11 = load i64, ptr %arrayidx14, align 8
  %12 = load i64, ptr %ne2.addr, align 8
  %cmp15 = icmp eq i64 %11, %12
  br i1 %cmp15, label %if.end19, label %if.then16

if.then16:                                        ; preds = %do.body12
  %13 = load ptr, ptr @stdout, align 8
  %call17 = call i32 @fflush(ptr noundef %13)
  %14 = load ptr, ptr @stderr, align 8
  %call18 = call i32 (ptr, ptr, ...) @fprintf(ptr noundef %14, ptr noundef @.str.2, ptr noundef @.str.3, i32 noundef 209, ptr noundef @.str.9)
  call void @ggml_print_backtrace()
  call void @abort() #21
  unreachable

if.end19:                                         ; preds = %do.body12
  br label %do.end20

do.end20:                                         ; preds = %if.end19
  br label %do.body21

do.body21:                                        ; preds = %do.end20
  %15 = load ptr, ptr %tensor.addr, align 8
  %ne22 = getelementptr inbounds %struct.ggml_tensor, ptr %15, i32 0, i32 3
  %arrayidx23 = getelementptr inbounds [4 x i64], ptr %ne22, i64 0, i64 3
  %16 = load i64, ptr %arrayidx23, align 8
  %17 = load i64, ptr %ne3.addr, align 8
  %cmp24 = icmp eq i64 %16, %17
  br i1 %cmp24, label %if.end28, label %if.then25

if.then25:                                        ; preds = %do.body21
  %18 = load ptr, ptr @stdout, align 8
  %call26 = call i32 @fflush(ptr noundef %18)
  %19 = load ptr, ptr @stderr, align 8
  %call27 = call i32 (ptr, ptr, ...) @fprintf(ptr noundef %19, ptr noundef @.str.2, ptr noundef @.str.3, i32 noundef 210, ptr noundef @.str.10)
  call void @ggml_print_backtrace()
  call void @abort() #21
  unreachable

if.end28:                                         ; preds = %do.body21
  br label %do.end29

do.end29:                                         ; preds = %if.end28
  ret void
}