; Function Attrs: mustprogress uwtable
define void @_Z15assert_shape_4dP11ggml_tensorllll(ptr noundef readonly captures(none) %tensor, i64 noundef %ne0, i64 noundef %ne1, i64 noundef %ne2, i64 noundef %ne3) local_unnamed_addr #3 {
entry:
  %ne = getelementptr inbounds nuw i8, ptr %tensor, i64 16
  %0 = load i64, ptr %ne, align 8
  %cmp = icmp eq i64 %0, %ne0
  br i1 %cmp, label %do.body2, label %if.then

if.then:                                          ; preds = %entry
  %1 = load ptr, ptr @stdout, align 8
  %call = tail call i32 @fflush(ptr noundef %1)
  %2 = load ptr, ptr @stderr, align 8
  %call1 = tail call i32 (ptr, ptr, ...) @fprintf(ptr noundef %2, ptr noundef nonnull @.str.2, ptr noundef nonnull @.str.3, i32 noundef 207, ptr noundef nonnull @.str.4) #39
  tail call void @ggml_print_backtrace()
  tail call void @abort() #41
  unreachable

do.body2:                                         ; preds = %entry
  %arrayidx5 = getelementptr inbounds nuw i8, ptr %tensor, i64 24
  %3 = load i64, ptr %arrayidx5, align 8
  %cmp6 = icmp eq i64 %3, %ne1
  br i1 %cmp6, label %do.body12, label %if.then7

if.then7:                                         ; preds = %do.body2
  %4 = load ptr, ptr @stdout, align 8
  %call8 = tail call i32 @fflush(ptr noundef %4)
  %5 = load ptr, ptr @stderr, align 8
  %call9 = tail call i32 (ptr, ptr, ...) @fprintf(ptr noundef %5, ptr noundef nonnull @.str.2, ptr noundef nonnull @.str.3, i32 noundef 208, ptr noundef nonnull @.str.8) #39
  tail call void @ggml_print_backtrace()
  tail call void @abort() #41
  unreachable

do.body12:                                        ; preds = %do.body2
  %arrayidx14 = getelementptr inbounds nuw i8, ptr %tensor, i64 32
  %6 = load i64, ptr %arrayidx14, align 8
  %cmp15 = icmp eq i64 %6, %ne2
  br i1 %cmp15, label %do.body21, label %if.then16

if.then16:                                        ; preds = %do.body12
  %7 = load ptr, ptr @stdout, align 8
  %call17 = tail call i32 @fflush(ptr noundef %7)
  %8 = load ptr, ptr @stderr, align 8
  %call18 = tail call i32 (ptr, ptr, ...) @fprintf(ptr noundef %8, ptr noundef nonnull @.str.2, ptr noundef nonnull @.str.3, i32 noundef 209, ptr noundef nonnull @.str.9) #39
  tail call void @ggml_print_backtrace()
  tail call void @abort() #41
  unreachable

do.body21:                                        ; preds = %do.body12
  %arrayidx23 = getelementptr inbounds nuw i8, ptr %tensor, i64 40
  %9 = load i64, ptr %arrayidx23, align 8
  %cmp24 = icmp eq i64 %9, %ne3
  br i1 %cmp24, label %do.end29, label %if.then25

if.then25:                                        ; preds = %do.body21
  %10 = load ptr, ptr @stdout, align 8
  %call26 = tail call i32 @fflush(ptr noundef %10)
  %11 = load ptr, ptr @stderr, align 8
  %call27 = tail call i32 (ptr, ptr, ...) @fprintf(ptr noundef %11, ptr noundef nonnull @.str.2, ptr noundef nonnull @.str.3, i32 noundef 210, ptr noundef nonnull @.str.10) #39
  tail call void @ggml_print_backtrace()
  tail call void @abort() #41
  unreachable

do.end29:                                         ; preds = %do.body21
  ret void
}